target datalayout = "e-m:e-p270:32:32-p271:32:32-p272:64:64-i64:64-i128:128-f80:128-n8:16:32:64-S128"
target triple = "x86_64-pc-linux-gnu"

%struct.imageIODataStruct = type { ptr, ptr, %struct.streamBufferStruct, %struct.pixelBufferStruct, i8 }
%struct.streamBufferStruct = type { ptr, ptr, ptr, i64, i64, i32, i64 }
%struct.pixelBufferStruct = type { ptr, i32, %union.pixptr }
%union.pixptr = type { ptr }

@.str.25 = private unnamed_addr constant [32 x i8] c"java/lang/IllegalStateException\00", align 1
@.str.26 = private unnamed_addr constant [41 x i8] c"Attempting to use reader after dispose()\00", align 1

; Function Attrs: nounwind uwtable
define void @Java_com_sun_imageio_plugins_jpeg_JPEGImageReader_resetLibraryState(ptr noundef %0, ptr noundef %1, i64 noundef %2) #0 {
  %4 = alloca ptr, align 8
  %5 = alloca ptr, align 8
  %6 = alloca i64, align 8
  %7 = alloca ptr, align 8
  %8 = alloca ptr, align 8
  store ptr %0, ptr %4, align 8
  store ptr %1, ptr %5, align 8
  store i64 %2, ptr %6, align 8
  %9 = load i64, ptr %6, align 8
  %10 = inttoptr i64 %9 to ptr
  store ptr %10, ptr %7, align 8
  %11 = load ptr, ptr %7, align 8
  %12 = icmp eq ptr %11, null
  br i1 %12, label %13, label %15

13:                                               ; preds = %3
  %14 = load ptr, ptr %4, align 8
  call void @JNU_ThrowByName(ptr noundef %14, ptr noundef @.str.25, ptr noundef @.str.26)
  br label %20

15:                                               ; preds = %3
  %16 = load ptr, ptr %7, align 8
  %17 = getelementptr inbounds %struct.imageIODataStruct, ptr %16, i32 0, i32 0
  %18 = load ptr, ptr %17, align 8
  store ptr %18, ptr %8, align 8
  %19 = load ptr, ptr %8, align 8
  call void @jAbrtDecompress(ptr noundef %19)
  br label %20

20:                                               ; preds = %15, %13
  ret void
}